; Function Attrs: mustprogress nofree nounwind memory(read, argmem: readwrite) uwtable
define i32 @llama_chat_builtin_templates(ptr noundef writeonly captures(none) %0, i64 noundef %1) local_unnamed_addr #8 {
  %3 = load i64, ptr getelementptr inbounds nuw (i8, ptr @_ZL18LLM_CHAT_TEMPLATESB5cxx11, i64 40), align 8, !tbaa !67
  %.sroa.speculated = tail call i64 @llvm.umin.i64(i64 %3, i64 %1)
  %.not = icmp eq i64 %.sroa.speculated, 0
  br i1 %.not, label %._crit_edge, label %.lr.ph.preheader

.lr.ph.preheader:                                 ; preds = %2
  %4 = load ptr, ptr getelementptr inbounds nuw (i8, ptr @_ZL18LLM_CHAT_TEMPLATESB5cxx11, i64 24), align 8, !tbaa !68
  br label %.lr.ph

._crit_edge:                                      ; preds = %.lr.ph, %2
  %5 = trunc i64 %3 to i32
  ret i32 %5

.lr.ph:                                           ; preds = %.lr.ph.preheader, %.lr.ph
  %.08 = phi i64 [ %10, %.lr.ph ], [ 0, %.lr.ph.preheader ]
  %.sroa.0.07 = phi ptr [ %9, %.lr.ph ], [ %4, %.lr.ph.preheader ]
  %6 = getelementptr inbounds nuw i8, ptr %.sroa.0.07, i64 32
  %7 = load ptr, ptr %6, align 8, !tbaa !18
  %8 = getelementptr inbounds nuw ptr, ptr %0, i64 %.08
  store ptr %7, ptr %8, align 8, !tbaa !69
  %9 = tail call noundef ptr @_ZSt18_Rb_tree_incrementPKSt18_Rb_tree_node_base(ptr noundef %.sroa.0.07) #26
  %10 = add nuw i64 %.08, 1
  %exitcond.not = icmp eq i64 %10, %.sroa.speculated
  br i1 %exitcond.not, label %._crit_edge, label %.lr.ph, !llvm.loop !70
}